; Function Attrs: mustprogress nofree norecurse nosync nounwind willreturn memory(read, inaccessiblemem: none) uwtable
define ptr @PQpass(ptr noundef readonly captures(address_is_null) %0) local_unnamed_addr #15 {
  %.not = icmp eq ptr %0, null
  br i1 %.not, label %16, label %2

2:                                                ; preds = %1
  %3 = getelementptr inbounds nuw i8, ptr %0, i64 480
  %4 = load ptr, ptr %3, align 8
  %.not12 = icmp eq ptr %4, null
  br i1 %.not12, label %.thread, label %5

5:                                                ; preds = %2
  %6 = getelementptr inbounds nuw i8, ptr %0, i64 476
  %7 = load i32, ptr %6, align 4
  %8 = sext i32 %7 to i64
  %9 = getelementptr inbounds %struct.pg_conn_host, ptr %4, i64 %8, i32 4
  %10 = load ptr, ptr %9, align 8
  %11 = icmp eq ptr %10, null
  br i1 %11, label %.thread, label %14

.thread:                                          ; preds = %2, %5
  %12 = getelementptr inbounds nuw i8, ptr %0, i64 104
  %13 = load ptr, ptr %12, align 8
  br label %14

14:                                               ; preds = %.thread, %5
  %.1 = phi ptr [ %13, %.thread ], [ %10, %5 ]
  %15 = icmp eq ptr %.1, null
  %spec.store.select = select i1 %15, ptr @.str.55, ptr %.1
  br label %16

16:                                               ; preds = %1, %14
  %.09 = phi ptr [ %spec.store.select, %14 ], [ null, %1 ]
  ret ptr %.09
}